; Function Attrs: nounwind uwtable
define dso_local { double, double } @PyComplex_AsCComplex(ptr noundef %0) local_unnamed_addr #9 {
  %2 = getelementptr i8, ptr %0, i64 8
  %.val = load ptr, ptr %2, align 8, !tbaa !8
  %.not.i19 = icmp eq ptr %.val, @PyComplex_Type
  br i1 %.not.i19, label %PyObject_TypeCheck.exit.thread, label %PyObject_TypeCheck.exit

PyObject_TypeCheck.exit:                          ; preds = %1
  %3 = tail call i32 @PyType_IsSubtype(ptr noundef %.val, ptr noundef nonnull @PyComplex_Type) #16
  %.not21 = icmp eq i32 %3, 0
  br i1 %.not21, label %5, label %PyObject_TypeCheck.exit.thread

PyObject_TypeCheck.exit.thread:                   ; preds = %1, %PyObject_TypeCheck.exit
  %4 = getelementptr inbounds nuw i8, ptr %0, i64 16
  %.sroa.016.0.copyload = load double, ptr %4, align 8, !tbaa !13
  %.sroa.5.0..sroa_idx = getelementptr inbounds nuw i8, ptr %0, i64 24
  %.sroa.5.0.copyload = load double, ptr %.sroa.5.0..sroa_idx, align 8, !tbaa !13
  br label %Py_DECREF.exit

5:                                                ; preds = %PyObject_TypeCheck.exit
  %6 = tail call fastcc ptr @try_complex_special_method(ptr noundef nonnull %0)
  %.not17 = icmp eq ptr %6, null
  br i1 %.not17, label %14, label %7

7:                                                ; preds = %5
  %8 = getelementptr inbounds nuw i8, ptr %6, i64 16
  %.sroa.0.0.copyload = load double, ptr %8, align 8, !tbaa !13
  %.sroa.8.0..sroa_idx = getelementptr inbounds nuw i8, ptr %6, i64 24
  %.sroa.8.0.copyload = load double, ptr %.sroa.8.0..sroa_idx, align 8, !tbaa !13
  %9 = load i32, ptr %6, align 8, !tbaa !12
  %.not.i = icmp sgt i32 %9, -1
  br i1 %.not.i, label %10, label %Py_DECREF.exit

10:                                               ; preds = %7
  %11 = add nsw i32 %9, -1
  store i32 %11, ptr %6, align 8, !tbaa !12
  %12 = icmp eq i32 %11, 0
  br i1 %12, label %13, label %Py_DECREF.exit

13:                                               ; preds = %10
  tail call void @_Py_Dealloc(ptr noundef nonnull %6) #16
  br label %Py_DECREF.exit

14:                                               ; preds = %5
  %15 = tail call ptr @PyErr_Occurred() #16
  %.not18 = icmp eq ptr %15, null
  br i1 %.not18, label %16, label %Py_DECREF.exit

16:                                               ; preds = %14
  %17 = tail call double @PyFloat_AsDouble(ptr noundef nonnull %0) #16
  br label %Py_DECREF.exit

Py_DECREF.exit:                                   ; preds = %13, %10, %7, %14, %16, %PyObject_TypeCheck.exit.thread
  %.sroa.016.0 = phi double [ %.sroa.016.0.copyload, %PyObject_TypeCheck.exit.thread ], [ %17, %16 ], [ -1.000000e+00, %14 ], [ %.sroa.0.0.copyload, %7 ], [ %.sroa.0.0.copyload, %10 ], [ %.sroa.0.0.copyload, %13 ]
  %.sroa.5.0 = phi double [ %.sroa.5.0.copyload, %PyObject_TypeCheck.exit.thread ], [ 0.000000e+00, %16 ], [ 0.000000e+00, %14 ], [ %.sroa.8.0.copyload, %7 ], [ %.sroa.8.0.copyload, %10 ], [ %.sroa.8.0.copyload, %13 ]
  %.fca.0.insert = insertvalue { double, double } poison, double %.sroa.016.0, 0
  %.fca.1.insert = insertvalue { double, double } %.fca.0.insert, double %.sroa.5.0, 1
  ret { double, double } %.fca.1.insert
}